---
triple:          'arm64-apple-darwin'
binary-path:     '/Users/samjgbennett/Documents/GitHub/set-up-ib9jho-environment-Samjgbennett/src/main'
relocations:
  - { offset: 0x2F8F, size: 0x8, addend: 0x0, symName: __ZNSt3__124__put_character_sequenceB8ne190101IcNS_11char_traitsIcEEEERNS_13basic_ostreamIT_T0_EES7_PKS4_m, symObjAddr: 0x70, symBinAddr: 0x100007250, symSize: 0x1E4 }
  - { offset: 0x3E5E, size: 0x8, addend: 0x0, symName: __ZNSt3__1lsB8ne190101INS_11char_traitsIcEEEERNS_13basic_ostreamIcT_EES6_PKc, symObjAddr: 0x28, symBinAddr: 0x100007208, symSize: 0x48 }
  - { offset: 0x3EA4, size: 0x8, addend: 0x0, symName: __ZNSt3__116__pad_and_outputB8ne190101IcNS_11char_traitsIcEEEENS_19ostreambuf_iteratorIT_T0_EES6_PKS4_S8_S8_RNS_8ios_baseES4_, symObjAddr: 0x294, symBinAddr: 0x100007474, symSize: 0x214 }
  - { offset: 0x3F73, size: 0x8, addend: 0x0, symName: __ZNSt3__112__to_addressB8ne190101IKcEEPT_S3_, symObjAddr: 0x7DC, symBinAddr: 0x1000079BC, symSize: 0x14 }
  - { offset: 0x3FDB, size: 0x8, addend: 0x0, symName: __ZNSt3__19use_facetB8ne190101INS_5ctypeIcEEEERKT_RKNS_6localeE, symObjAddr: 0xA9C, symBinAddr: 0x100007C7C, symSize: 0x2C }
  - { offset: 0x44A8, size: 0x8, addend: 0x0, symName: __ZNSt3__118__constexpr_strlenB8ne190101IcEEmPKT_, symObjAddr: 0xB30, symBinAddr: 0x100007D10, symSize: 0x24 }
  - { offset: 0x5499, size: 0x8, addend: 0x0, symName: _main, symObjAddr: 0x0, symBinAddr: 0x1000071E0, symSize: 0x28 }
  - { offset: 0x54B2, size: 0x8, addend: 0x0, symName: __ZNSt3__111char_traitsIcE6lengthB8ne190101EPKc, symObjAddr: 0x254, symBinAddr: 0x100007434, symSize: 0x24 }
  - { offset: 0x54F2, size: 0x8, addend: 0x0, symName: __ZNKSt3__113basic_ostreamIcNS_11char_traitsIcEEE6sentrycvbB8ne190101Ev, symObjAddr: 0x278, symBinAddr: 0x100007458, symSize: 0x1C }
  - { offset: 0x5516, size: 0x8, addend: 0x0, symName: __ZNSt3__119ostreambuf_iteratorIcNS_11char_traitsIcEEEC1B8ne190101ERNS_13basic_ostreamIcS2_EE, symObjAddr: 0x4A8, symBinAddr: 0x100007688, symSize: 0x34 }
  - { offset: 0x554C, size: 0x8, addend: 0x0, symName: __ZNKSt3__18ios_base5flagsB8ne190101Ev, symObjAddr: 0x4DC, symBinAddr: 0x1000076BC, symSize: 0x18 }
  - { offset: 0x5572, size: 0x8, addend: 0x0, symName: __ZNKSt3__19basic_iosIcNS_11char_traitsIcEEE4fillB8ne190101Ev, symObjAddr: 0x4F4, symBinAddr: 0x1000076D4, symSize: 0x64 }
  - { offset: 0x5596, size: 0x8, addend: 0x0, symName: __ZNKSt3__119ostreambuf_iteratorIcNS_11char_traitsIcEEE6failedB8ne190101Ev, symObjAddr: 0x558, symBinAddr: 0x100007738, symSize: 0x20 }
  - { offset: 0x55BA, size: 0x8, addend: 0x0, symName: __ZNSt3__19basic_iosIcNS_11char_traitsIcEEE8setstateB8ne190101Ej, symObjAddr: 0x578, symBinAddr: 0x100007758, symSize: 0x2C }
  - { offset: 0x55ED, size: 0x8, addend: 0x0, symName: __ZNKSt3__18ios_base5widthB8ne190101Ev, symObjAddr: 0x5B4, symBinAddr: 0x100007794, symSize: 0x18 }
  - { offset: 0x5613, size: 0x8, addend: 0x0, symName: __ZNSt3__115basic_streambufIcNS_11char_traitsIcEEE5sputnB8ne190101EPKcl, symObjAddr: 0x5CC, symBinAddr: 0x1000077AC, symSize: 0x3C }
  - { offset: 0x5653, size: 0x8, addend: 0x0, symName: __ZNSt3__112basic_stringIcNS_11char_traitsIcEENS_9allocatorIcEEEC1B8ne190101Emc, symObjAddr: 0x608, symBinAddr: 0x1000077E8, symSize: 0x3C }
  - { offset: 0x5699, size: 0x8, addend: 0x0, symName: __ZNKSt3__112basic_stringIcNS_11char_traitsIcEENS_9allocatorIcEEE4dataB8ne190101Ev, symObjAddr: 0x644, symBinAddr: 0x100007824, symSize: 0x28 }
  - { offset: 0x56BD, size: 0x8, addend: 0x0, symName: __ZNSt3__18ios_base5widthB8ne190101El, symObjAddr: 0x66C, symBinAddr: 0x10000784C, symSize: 0x2C }
  - { offset: 0x5701, size: 0x8, addend: 0x0, symName: __ZNSt3__112basic_stringIcNS_11char_traitsIcEENS_9allocatorIcEEEC2B8ne190101Emc, symObjAddr: 0x698, symBinAddr: 0x100007878, symSize: 0x4C }
  - { offset: 0x574C, size: 0x8, addend: 0x0, symName: __ZNSt3__117__compressed_pairINS_12basic_stringIcNS_11char_traitsIcEENS_9allocatorIcEEE5__repES5_EC1B8ne190101INS_18__default_init_tagESA_EEOT_OT0_, symObjAddr: 0x6E4, symBinAddr: 0x1000078C4, symSize: 0x3C }
  - { offset: 0x57A2, size: 0x8, addend: 0x0, symName: __ZNSt3__117__compressed_pairINS_12basic_stringIcNS_11char_traitsIcEENS_9allocatorIcEEE5__repES5_EC2B8ne190101INS_18__default_init_tagESA_EEOT_OT0_, symObjAddr: 0x720, symBinAddr: 0x100007900, symSize: 0x3C }
  - { offset: 0x57F8, size: 0x8, addend: 0x0, symName: __ZNSt3__122__compressed_pair_elemINS_12basic_stringIcNS_11char_traitsIcEENS_9allocatorIcEEE5__repELi0ELb0EEC2B8ne190101ENS_18__default_init_tagE, symObjAddr: 0x75C, symBinAddr: 0x10000793C, symSize: 0x14 }
  - { offset: 0x582A, size: 0x8, addend: 0x0, symName: __ZNSt3__122__compressed_pair_elemINS_9allocatorIcEELi1ELb1EEC2B8ne190101ENS_18__default_init_tagE, symObjAddr: 0x770, symBinAddr: 0x100007950, symSize: 0x2C }
  - { offset: 0x585C, size: 0x8, addend: 0x0, symName: __ZNSt3__19allocatorIcEC2B8ne190101Ev, symObjAddr: 0x79C, symBinAddr: 0x10000797C, symSize: 0x2C }
  - { offset: 0x5884, size: 0x8, addend: 0x0, symName: __ZNSt3__116__non_trivial_ifILb1ENS_9allocatorIcEEEC2B8ne190101Ev, symObjAddr: 0x7C8, symBinAddr: 0x1000079A8, symSize: 0x14 }
  - { offset: 0x58AC, size: 0x8, addend: 0x0, symName: __ZNKSt3__112basic_stringIcNS_11char_traitsIcEENS_9allocatorIcEEE13__get_pointerB8ne190101Ev, symObjAddr: 0x7F0, symBinAddr: 0x1000079D0, symSize: 0x54 }
  - { offset: 0x58D0, size: 0x8, addend: 0x0, symName: __ZNKSt3__112basic_stringIcNS_11char_traitsIcEENS_9allocatorIcEEE9__is_longB8ne190101Ev, symObjAddr: 0x844, symBinAddr: 0x100007A24, symSize: 0x34 }
  - { offset: 0x58F4, size: 0x8, addend: 0x0, symName: __ZNKSt3__112basic_stringIcNS_11char_traitsIcEENS_9allocatorIcEEE18__get_long_pointerB8ne190101Ev, symObjAddr: 0x878, symBinAddr: 0x100007A58, symSize: 0x28 }
  - { offset: 0x5918, size: 0x8, addend: 0x0, symName: __ZNKSt3__112basic_stringIcNS_11char_traitsIcEENS_9allocatorIcEEE19__get_short_pointerB8ne190101Ev, symObjAddr: 0x8A0, symBinAddr: 0x100007A80, symSize: 0x28 }
  - { offset: 0x593C, size: 0x8, addend: 0x0, symName: __ZNKSt3__117__compressed_pairINS_12basic_stringIcNS_11char_traitsIcEENS_9allocatorIcEEE5__repES5_E5firstB8ne190101Ev, symObjAddr: 0x8C8, symBinAddr: 0x100007AA8, symSize: 0x24 }
  - { offset: 0x5960, size: 0x8, addend: 0x0, symName: __ZNKSt3__122__compressed_pair_elemINS_12basic_stringIcNS_11char_traitsIcEENS_9allocatorIcEEE5__repELi0ELb0EE5__getB8ne190101Ev, symObjAddr: 0x8EC, symBinAddr: 0x100007ACC, symSize: 0x14 }
  - { offset: 0x5984, size: 0x8, addend: 0x0, symName: __ZNSt3__114pointer_traitsIPKcE10pointer_toB8ne190101ERS1_, symObjAddr: 0x900, symBinAddr: 0x100007AE0, symSize: 0x14 }
  - { offset: 0x59A6, size: 0x8, addend: 0x0, symName: __ZNSt3__119ostreambuf_iteratorIcNS_11char_traitsIcEEEC2B8ne190101ERNS_13basic_ostreamIcS2_EE, symObjAddr: 0x914, symBinAddr: 0x100007AF4, symSize: 0x54 }
  - { offset: 0x59DC, size: 0x8, addend: 0x0, symName: __ZNKSt3__19basic_iosIcNS_11char_traitsIcEEE5rdbufB8ne190101Ev, symObjAddr: 0x968, symBinAddr: 0x100007B48, symSize: 0x24 }
  - { offset: 0x5A00, size: 0x8, addend: 0x0, symName: __ZNKSt3__18ios_base5rdbufB8ne190101Ev, symObjAddr: 0x98C, symBinAddr: 0x100007B6C, symSize: 0x18 }
  - { offset: 0x5A24, size: 0x8, addend: 0x0, symName: __ZNKSt3__118_SentinelValueFillINS_11char_traitsIcEEE8__is_setB8ne190101Ev, symObjAddr: 0x9A4, symBinAddr: 0x100007B84, symSize: 0x38 }
  - { offset: 0x5A48, size: 0x8, addend: 0x0, symName: __ZNKSt3__19basic_iosIcNS_11char_traitsIcEEE5widenB8ne190101Ec, symObjAddr: 0x9DC, symBinAddr: 0x100007BBC, symSize: 0x80 }
  - { offset: 0x5A7B, size: 0x8, addend: 0x0, symName: __ZNSt3__118_SentinelValueFillINS_11char_traitsIcEEEaSB8ne190101Ei, symObjAddr: 0xA5C, symBinAddr: 0x100007C3C, symSize: 0x20 }
  - { offset: 0x5AAE, size: 0x8, addend: 0x0, symName: __ZNKSt3__118_SentinelValueFillINS_11char_traitsIcEEE5__getB8ne190101Ev, symObjAddr: 0xA7C, symBinAddr: 0x100007C5C, symSize: 0x18 }
  - { offset: 0x5AD2, size: 0x8, addend: 0x0, symName: __ZNSt3__111char_traitsIcE3eofB8ne190101Ev, symObjAddr: 0xA94, symBinAddr: 0x100007C74, symSize: 0x8 }
  - { offset: 0x5B27, size: 0x8, addend: 0x0, symName: __ZNKSt3__15ctypeIcE5widenB8ne190101Ec, symObjAddr: 0xAC8, symBinAddr: 0x100007CA8, symSize: 0x34 }
  - { offset: 0x5B5A, size: 0x8, addend: 0x0, symName: __ZNSt3__18ios_base8setstateB8ne190101Ej, symObjAddr: 0xAFC, symBinAddr: 0x100007CDC, symSize: 0x34 }
...
